; Function Attrs: mustprogress nounwind uwtable
define hidden void @_ZN19G1MonitoringSupport27survivor_space_memory_usageEmm(ptr dead_on_unwind noalias nocapture writable writeonly sret(%class.MemoryUsage) align 8 %0, ptr nocapture noundef nonnull readonly align 8 dereferenceable(752) %1, i64 noundef %2, i64 noundef %3) local_unnamed_addr #0 align 2 {
  %5 = load ptr, ptr @MonitoringSupport_lock, align 8
  %.not.i.i = icmp eq ptr %5, null
  br i1 %.not.i.i, label %_ZN11MutexLockerC2EP5MutexNS0_18SafepointCheckFlagE.exit.thread, label %8

_ZN11MutexLockerC2EP5MutexNS0_18SafepointCheckFlagE.exit.thread: ; preds = %4
  %6 = getelementptr inbounds i8, ptr %1, i64 728
  %7 = load <2 x i64>, ptr %6, align 8
  br label %_ZN11MutexLockerD2Ev.exit

8:                                                ; preds = %4
  tail call void @_ZN5Mutex28lock_without_safepoint_checkEv(ptr noundef nonnull align 8 dereferenceable(104) %5) #10
  %9 = getelementptr inbounds i8, ptr %1, i64 728
  %10 = load <2 x i64>, ptr %9, align 8
  tail call void @_ZN5Mutex6unlockEv(ptr noundef nonnull align 8 dereferenceable(104) %5) #10
  br label %_ZN11MutexLockerD2Ev.exit

_ZN11MutexLockerD2Ev.exit:                        ; preds = %_ZN11MutexLockerC2EP5MutexNS0_18SafepointCheckFlagE.exit.thread, %8
  %11 = phi <2 x i64> [ %7, %_ZN11MutexLockerC2EP5MutexNS0_18SafepointCheckFlagE.exit.thread ], [ %10, %8 ]
  store i64 %2, ptr %0, align 8
  %12 = getelementptr inbounds i8, ptr %0, i64 8
  %13 = shufflevector <2 x i64> %11, <2 x i64> poison, <2 x i32> <i32 1, i32 0>
  store <2 x i64> %13, ptr %12, align 8
  %14 = getelementptr inbounds i8, ptr %0, i64 24
  store i64 %3, ptr %14, align 8
  ret void
}